
flash_TC2xx.elf:     file format elf32-tricore


Disassembly of section .text:

70000000 <start>:
70000000:	00 00       	nop 
70000002:	00 00       	nop 
70000004:	91 00 00 a7 	movh.a %sp,28672
70000008:	d9 aa 00 04 	lea %sp,[%sp]16384 <70004000 <BSS_BASE+0x2000>>
7000000c:	9d 70 09 00 	ja 70000012 <flashing>
70000010:	00 70       	fret 

70000012 <flashing>:
70000012:	19 42 10 00 	ld.w %d2,[%a4]16
70000016:	d9 aa d8 bf 	lea %sp,[%sp]-296 <6ffffed8 <__INT_DATA_RAM_SIZE+0x6fffbed8>>
7000001a:	40 42       	mov.aa %a2,%a4
7000001c:	df 12 06 00 	jeq %d2,1,70000028 <flashing+0x16>
70000020:	df 22 09 01 	jeq %d2,2,70000232 <flashing+0x220>
70000024:	00 a0       	debug 
70000026:	00 90       	ret 
70000028:	19 42 08 00 	ld.w %d2,[%a4]8
7000002c:	59 a2 14 00 	st.w [%sp]20,%d2
70000030:	82 02       	mov %d2,0
70000032:	7b 00 f0 38 	movh %d3,36608
70000036:	7b 00 00 48 	movh %d4,32768
7000003a:	59 a2 24 00 	st.w [%sp]36,%d2
7000003e:	54 42       	ld.w %d2,[%a4]
70000040:	99 45 14 00 	ld.a %a5,[%a4]20
70000044:	26 32       	and %d2,%d3
70000046:	5f 42 93 02 	jeq %d2,%d4,7000056c <flashing+0x55a>
7000004a:	5f 32 06 80 	jne %d2,%d3,70000056 <flashing+0x44>
7000004e:	3b 80 00 20 	mov %d2,8
70000052:	59 a2 24 00 	st.w [%sp]36,%d2
70000056:	19 a2 24 00 	ld.w %d2,[%sp]36
7000005a:	df 02 73 02 	jeq %d2,0,70000540 <flashing+0x52e>
7000005e:	19 22 0c 00 	ld.w %d2,[%a2]12
70000062:	91 00 f0 4a 	movh.a %a4,44800
70000066:	91 00 f0 ca 	movh.a %a12,44800
7000006a:	91 00 f0 7a 	movh.a %a7,44800
7000006e:	7b 10 f0 1a 	movh %d1,44801
70000072:	91 10 f0 fa 	movh.a %a15,44801
70000076:	91 10 f0 ea 	movh.a %a14,44801
7000007a:	91 00 80 6f 	movh.a %a6,63488
7000007e:	82 06       	mov %d6,0
70000080:	d9 44 54 55 	lea %a4,[%a4]21844 <af005554 <_SMALL_DATA_+0x3effb554>>
70000084:	3b 00 05 b0 	mov %d11,80
70000088:	3b d0 05 a0 	mov %d10,93
7000008c:	d9 cc 70 75 	lea %a12,[%a12]22000 <af0055f0 <_SMALL_DATA_+0x3effb5f0>>
70000090:	d9 77 74 75 	lea %a7,[%a7]22004 <af0055f4 <_SMALL_DATA_+0x3effb5f4>>
70000094:	1b 01 a5 1a 	addi %d1,%d1,-21936
70000098:	d9 ff 98 9a 	lea %a15,[%a15]-21928 <af00aa58 <_SMALL_DATA_+0x3f000a58>>
7000009c:	d9 ee a8 aa 	lea %a14,[%a14]-21848 <af00aaa8 <_SMALL_DATA_+0x3f000aa8>>
700000a0:	3b 00 0a 90 	mov %d9,160
700000a4:	3b a0 07 80 	mov %d8,122
700000a8:	3b 00 00 04 	mov %d0,16384
700000ac:	d9 66 10 02 	lea %a6,[%a6]8208 <f8002010 <_SMALL_DATA_+0x87ff8010>>
700000b0:	3b a0 0f 50 	mov %d5,250
700000b4:	3b 00 10 70 	mov %d7,256
700000b8:	df 02 ae 00 	jeq %d2,0,70000214 <flashing+0x202>
700000bc:	19 a3 14 00 	ld.w %d3,[%sp]20
700000c0:	59 a6 0c 00 	st.w [%sp]12,%d6
700000c4:	19 a4 0c 00 	ld.w %d4,[%sp]12
700000c8:	19 a3 24 00 	ld.w %d3,[%sp]36
700000cc:	7f 34 23 80 	jge.u %d4,%d3,70000112 <flashing+0x100>
700000d0:	01 52 00 d6 	addsc.a %a13,%a5,%d2,0
700000d4:	40 53       	mov.aa %a3,%a5
700000d6:	19 a3 0c 00 	ld.w %d3,[%sp]12
700000da:	40 35       	mov.aa %a5,%a3
700000dc:	06 23       	sh %d3,2
700000de:	1b 83 12 30 	addi %d3,%d3,296
700000e2:	54 52       	ld.w %d2,[%a5]
700000e4:	60 35       	mov.a %a5,%d3
700000e6:	b0 43       	add.a %a3,4
700000e8:	30 a5       	add.a %a5,%sp
700000ea:	59 52 c0 cf 	st.w [%a5]-256,%d2
700000ee:	19 a2 0c 00 	ld.w %d2,[%sp]12
700000f2:	01 3d 20 50 	sub.a %a5,%a13,%a3
700000f6:	c2 12       	add %d2,1
700000f8:	59 a2 0c 00 	st.w [%sp]12,%d2
700000fc:	19 a4 0c 00 	ld.w %d4,[%sp]12
70000100:	19 a3 24 00 	ld.w %d3,[%sp]36
70000104:	3f 34 e9 ff 	jlt.u %d4,%d3,700000d6 <flashing+0xc4>
70000108:	b5 25 0c 00 	st.a [%a2]12,%a5
7000010c:	59 a2 0c 00 	st.w [%sp]12,%d2
70000110:	40 35       	mov.aa %a5,%a3
70000112:	19 a2 24 00 	ld.w %d2,[%sp]36
70000116:	8b 02 24 22 	ne %d2,%d2,64
7000011a:	df 02 03 80 	jne %d2,0,70000120 <flashing+0x10e>
7000011e:	74 4b       	st.w [%a4],%d11
70000120:	19 a2 24 00 	ld.w %d2,[%sp]36
70000124:	8b 82 20 22 	ne %d2,%d2,8
70000128:	df 02 03 80 	jne %d2,0,7000012e <flashing+0x11c>
7000012c:	74 4a       	st.w [%a4],%d10
7000012e:	59 a6 0c 00 	st.w [%sp]12,%d6
70000132:	19 a3 0c 00 	ld.w %d3,[%sp]12
70000136:	19 a2 24 00 	ld.w %d2,[%sp]36
7000013a:	7f 23 32 80 	jge.u %d3,%d2,7000019e <flashing+0x18c>
7000013e:	19 a2 0c 00 	ld.w %d2,[%sp]12
70000142:	06 22       	sh %d2,2
70000144:	1b 82 12 20 	addi %d2,%d2,296
70000148:	60 23       	mov.a %a3,%d2
7000014a:	30 a3       	add.a %a3,%sp
7000014c:	19 32 c0 cf 	ld.w %d2,[%a3]-256
70000150:	59 a2 1c 00 	st.w [%sp]28,%d2
70000154:	19 a2 0c 00 	ld.w %d2,[%sp]12
70000158:	c2 12       	add %d2,1
7000015a:	59 a2 0c 00 	st.w [%sp]12,%d2
7000015e:	19 a2 0c 00 	ld.w %d2,[%sp]12
70000162:	06 22       	sh %d2,2
70000164:	1b 82 12 20 	addi %d2,%d2,296
70000168:	60 23       	mov.a %a3,%d2
7000016a:	30 a3       	add.a %a3,%sp
7000016c:	19 32 c0 cf 	ld.w %d2,[%a3]-256
70000170:	59 a2 20 00 	st.w [%sp]32,%d2
70000174:	19 a2 0c 00 	ld.w %d2,[%sp]12
70000178:	c2 12       	add %d2,1
7000017a:	59 a2 0c 00 	st.w [%sp]12,%d2
7000017e:	19 a2 1c 00 	ld.w %d2,[%sp]28
70000182:	74 c2       	st.w [%a12],%d2
70000184:	0d 00 80 04 	dsync 
70000188:	19 a2 20 00 	ld.w %d2,[%sp]32
7000018c:	74 72       	st.w [%a7],%d2
7000018e:	0d 00 80 04 	dsync 
70000192:	19 a3 0c 00 	ld.w %d3,[%sp]12
70000196:	19 a2 24 00 	ld.w %d2,[%sp]36
7000019a:	3f 23 d2 ff 	jlt.u %d3,%d2,7000013e <flashing+0x12c>
7000019e:	60 13       	mov.a %a3,%d1
700001a0:	19 a2 14 00 	ld.w %d2,[%sp]20
700001a4:	74 32       	st.w [%a3],%d2
700001a6:	0d 00 80 04 	dsync 
700001aa:	68 06       	st.w [%a15]0,%d6
700001ac:	0d 00 80 04 	dsync 
700001b0:	74 e9       	st.w [%a14],%d9
700001b2:	0d 00 80 04 	dsync 
700001b6:	74 e8       	st.w [%a14],%d8
700001b8:	74 a0       	st.w [%sp],%d0
700001ba:	54 a2       	ld.w %d2,[%sp]
700001bc:	bf 12 20 00 	jlt %d2,1,700001fc <flashing+0x1ea>
700001c0:	54 62       	ld.w %d2,[%a6]
700001c2:	59 a2 18 00 	st.w [%sp]24,%d2
700001c6:	0d 00 80 04 	dsync 
700001ca:	19 a2 18 00 	ld.w %d2,[%sp]24
700001ce:	8f e2 01 21 	and %d2,%d2,30
700001d2:	df 02 04 80 	jne %d2,0,700001da <flashing+0x1c8>
700001d6:	74 a2       	st.w [%sp],%d2
700001d8:	74 45       	st.w [%a4],%d5
700001da:	54 a2       	ld.w %d2,[%sp]
700001dc:	df 12 0a 80 	jne %d2,1,700001f0 <flashing+0x1de>
700001e0:	19 a2 14 00 	ld.w %d2,[%sp]20
700001e4:	59 22 08 00 	st.w [%a2]8,%d2
700001e8:	59 27 10 00 	st.w [%a2]16,%d7
700001ec:	74 45       	st.w [%a4],%d5
700001ee:	00 a0       	debug 
700001f0:	54 a2       	ld.w %d2,[%sp]
700001f2:	c2 f2       	add %d2,-1
700001f4:	74 a2       	st.w [%sp],%d2
700001f6:	54 a2       	ld.w %d2,[%sp]
700001f8:	ff 12 e4 7f 	jge %d2,1,700001c0 <flashing+0x1ae>
700001fc:	19 a2 24 00 	ld.w %d2,[%sp]36
70000200:	19 a3 14 00 	ld.w %d3,[%sp]20
70000204:	06 22       	sh %d2,2
70000206:	42 32       	add %d2,%d3
70000208:	59 a2 14 00 	st.w [%sp]20,%d2
7000020c:	19 22 0c 00 	ld.w %d2,[%a2]12
70000210:	df 02 56 ff 	jne %d2,0,700000bc <flashing+0xaa>
70000214:	82 02       	mov %d2,0
70000216:	91 00 f0 3a 	movh.a %a3,44800
7000021a:	d9 33 54 55 	lea %a3,[%a3]21844 <af005554 <_SMALL_DATA_+0x3effb554>>
7000021e:	59 22 10 00 	st.w [%a2]16 <af005554 <_SMALL_DATA_+0x3effb554>>,%d2
70000222:	3b a0 0f 20 	mov %d2,250
70000226:	74 32       	st.w [%a3],%d2
70000228:	00 a0       	debug 
7000022a:	19 22 10 00 	ld.w %d2,[%a2]16
7000022e:	df 22 fb fe 	jne %d2,2,70000024 <flashing+0x12>
70000232:	82 02       	mov %d2,0
70000234:	19 24 08 00 	ld.w %d4,[%a2]8
70000238:	59 a2 08 00 	st.w [%sp]8,%d2
7000023c:	54 22       	ld.w %d2,[%a2]
7000023e:	0f 42 c0 30 	xor %d3,%d2,%d4
70000242:	8f f3 cf 31 	andn %d3,%d3,255
70000246:	df 03 6e 01 	jeq %d3,0,70000522 <flashing+0x510>
7000024a:	8f f2 cf 31 	andn %d3,%d2,255
7000024e:	1b 03 00 54 	addi %d5,%d3,16384
70000252:	8f f4 cf 21 	andn %d2,%d4,255
70000256:	5f 25 c2 01 	jeq %d5,%d2,700005da <flashing+0x5c8>
7000025a:	bb 00 00 58 	mov.u %d5,32768
7000025e:	42 35       	add %d5,%d3
70000260:	5f 52 ae 01 	jeq %d2,%d5,700005bc <flashing+0x5aa>
70000264:	bb 00 00 5c 	mov.u %d5,49152
70000268:	42 35       	add %d5,%d3
7000026a:	5f 52 9a 01 	jeq %d2,%d5,7000059e <flashing+0x58c>
7000026e:	9b 13 00 50 	addih %d5,%d3,1
70000272:	5f 52 87 01 	jeq %d2,%d5,70000580 <flashing+0x56e>
70000276:	7b 10 00 50 	movh %d5,1
7000027a:	1b 05 00 54 	addi %d5,%d5,16384
7000027e:	42 35       	add %d5,%d3
70000280:	5f 52 8d 03 	jeq %d2,%d5,7000099a <flashing+0x988>
70000284:	7b 20 00 50 	movh %d5,2
70000288:	1b 05 00 58 	addi %d5,%d5,-32768
7000028c:	42 35       	add %d5,%d3
7000028e:	5f 52 77 03 	jeq %d2,%d5,7000097c <flashing+0x96a>
70000292:	7b 20 00 50 	movh %d5,2
70000296:	1b 05 00 5c 	addi %d5,%d5,-16384
7000029a:	42 35       	add %d5,%d3
7000029c:	5f 52 61 03 	jeq %d2,%d5,7000095e <flashing+0x94c>
700002a0:	9b 23 00 50 	addih %d5,%d3,2
700002a4:	5f 52 4e 03 	jeq %d2,%d5,70000940 <flashing+0x92e>
700002a8:	7b 30 00 50 	movh %d5,3
700002ac:	1b 05 00 58 	addi %d5,%d5,-32768
700002b0:	42 35       	add %d5,%d3
700002b2:	5f 52 38 03 	jeq %d2,%d5,70000922 <flashing+0x910>
700002b6:	9b 33 00 50 	addih %d5,%d3,3
700002ba:	5f 52 25 03 	jeq %d2,%d5,70000904 <flashing+0x8f2>
700002be:	7b 40 00 50 	movh %d5,4
700002c2:	1b 05 00 58 	addi %d5,%d5,-32768
700002c6:	42 35       	add %d5,%d3
700002c8:	5f 52 0f 03 	jeq %d2,%d5,700008e6 <flashing+0x8d4>
700002cc:	9b 43 00 50 	addih %d5,%d3,4
700002d0:	5f 52 fc 02 	jeq %d2,%d5,700008c8 <flashing+0x8b6>
700002d4:	7b 50 00 50 	movh %d5,5
700002d8:	1b 05 00 58 	addi %d5,%d5,-32768
700002dc:	42 35       	add %d5,%d3
700002de:	5f 52 4e 04 	jeq %d2,%d5,70000b7a <flashing+0xb68>
700002e2:	9b 53 00 50 	addih %d5,%d3,5
700002e6:	5f 52 3b 04 	jeq %d2,%d5,70000b5c <flashing+0xb4a>
700002ea:	7b 60 00 50 	movh %d5,6
700002ee:	1b 05 00 58 	addi %d5,%d5,-32768
700002f2:	42 35       	add %d5,%d3
700002f4:	5f 52 25 04 	jeq %d2,%d5,70000b3e <flashing+0xb2c>
700002f8:	9b 63 00 50 	addih %d5,%d3,6
700002fc:	5f 52 12 04 	jeq %d2,%d5,70000b20 <flashing+0xb0e>
70000300:	9b 73 00 50 	addih %d5,%d3,7
70000304:	5f 52 ff 03 	jeq %d2,%d5,70000b02 <flashing+0xaf0>
70000308:	9b 83 00 50 	addih %d5,%d3,8
7000030c:	5f 52 ec 03 	jeq %d2,%d5,70000ae4 <flashing+0xad2>
70000310:	9b 93 00 50 	addih %d5,%d3,9
70000314:	5f 52 d9 03 	jeq %d2,%d5,70000ac6 <flashing+0xab4>
70000318:	9b a3 00 50 	addih %d5,%d3,10
7000031c:	5f 52 c6 03 	jeq %d2,%d5,70000aa8 <flashing+0xa96>
70000320:	9b c3 00 50 	addih %d5,%d3,12
70000324:	5f 52 b3 03 	jeq %d2,%d5,70000a8a <flashing+0xa78>
70000328:	9b e3 00 50 	addih %d5,%d3,14
7000032c:	5f 52 a0 03 	jeq %d2,%d5,70000a6c <flashing+0xa5a>
70000330:	9b 03 01 50 	addih %d5,%d3,16
70000334:	5f 52 8d 03 	jeq %d2,%d5,70000a4e <flashing+0xa3c>
70000338:	9b 43 01 50 	addih %d5,%d3,20
7000033c:	5f 52 7a 03 	jeq %d2,%d5,70000a30 <flashing+0xa1e>
70000340:	9b 83 01 50 	addih %d5,%d3,24
70000344:	5f 52 67 03 	jeq %d2,%d5,70000a12 <flashing+0xa00>
70000348:	9b c3 01 50 	addih %d5,%d3,28
7000034c:	5f 52 54 03 	jeq %d2,%d5,700009f4 <flashing+0x9e2>
70000350:	9b 03 02 50 	addih %d5,%d3,32
70000354:	5f 52 41 03 	jeq %d2,%d5,700009d6 <flashing+0x9c4>
70000358:	7b 00 02 50 	movh %d5,32
7000035c:	1b 05 00 54 	addi %d5,%d5,16384
70000360:	42 35       	add %d5,%d3
70000362:	5f 52 2b 03 	jeq %d2,%d5,700009b8 <flashing+0x9a6>
70000366:	7b 10 02 50 	movh %d5,33
7000036a:	1b 05 00 58 	addi %d5,%d5,-32768
7000036e:	42 35       	add %d5,%d3
70000370:	5f 52 25 02 	jeq %d2,%d5,700007ba <flashing+0x7a8>
70000374:	7b 10 02 50 	movh %d5,33
70000378:	1b 05 00 5c 	addi %d5,%d5,-16384
7000037c:	42 35       	add %d5,%d3
7000037e:	5f 52 0f 02 	jeq %d2,%d5,7000079c <flashing+0x78a>
70000382:	9b 13 02 50 	addih %d5,%d3,33
70000386:	5f 52 fc 01 	jeq %d2,%d5,7000077e <flashing+0x76c>
7000038a:	7b 10 02 50 	movh %d5,33
7000038e:	1b 05 00 54 	addi %d5,%d5,16384
70000392:	42 35       	add %d5,%d3
70000394:	5f 52 e6 01 	jeq %d2,%d5,70000760 <flashing+0x74e>
70000398:	7b 20 02 50 	movh %d5,34
7000039c:	1b 05 00 58 	addi %d5,%d5,-32768
700003a0:	42 35       	add %d5,%d3
700003a2:	5f 52 d0 01 	jeq %d2,%d5,70000742 <flashing+0x730>
700003a6:	7b 20 02 50 	movh %d5,34
700003aa:	1b 05 00 5c 	addi %d5,%d5,-16384
700003ae:	42 35       	add %d5,%d3
700003b0:	5f 52 ba 01 	jeq %d2,%d5,70000724 <flashing+0x712>
700003b4:	9b 23 02 50 	addih %d5,%d3,34
700003b8:	5f 52 a7 01 	jeq %d2,%d5,70000706 <flashing+0x6f4>
700003bc:	7b 30 02 50 	movh %d5,35
700003c0:	1b 05 00 58 	addi %d5,%d5,-32768
700003c4:	42 35       	add %d5,%d3
700003c6:	5f 52 91 01 	jeq %d2,%d5,700006e8 <flashing+0x6d6>
700003ca:	9b 33 02 50 	addih %d5,%d3,35
700003ce:	5f 52 7e 01 	jeq %d2,%d5,700006ca <flashing+0x6b8>
700003d2:	7b 40 02 50 	movh %d5,36
700003d6:	1b 05 00 58 	addi %d5,%d5,-32768
700003da:	42 35       	add %d5,%d3
700003dc:	5f 52 68 01 	jeq %d2,%d5,700006ac <flashing+0x69a>
700003e0:	9b 43 02 50 	addih %d5,%d3,36
700003e4:	5f 52 55 01 	jeq %d2,%d5,7000068e <flashing+0x67c>
700003e8:	7b 50 02 50 	movh %d5,37
700003ec:	1b 05 00 58 	addi %d5,%d5,-32768
700003f0:	42 35       	add %d5,%d3
700003f2:	5f 52 3f 01 	jeq %d2,%d5,70000670 <flashing+0x65e>
700003f6:	9b 53 02 50 	addih %d5,%d3,37
700003fa:	5f 52 2c 01 	jeq %d2,%d5,70000652 <flashing+0x640>
700003fe:	7b 60 02 50 	movh %d5,38
70000402:	1b 05 00 58 	addi %d5,%d5,-32768
70000406:	42 35       	add %d5,%d3
70000408:	5f 52 16 01 	jeq %d2,%d5,70000634 <flashing+0x622>
7000040c:	9b 63 02 50 	addih %d5,%d3,38
70000410:	5f 52 03 01 	jeq %d2,%d5,70000616 <flashing+0x604>
70000414:	9b 73 02 50 	addih %d5,%d3,39
70000418:	5f 52 f0 00 	jeq %d2,%d5,700005f8 <flashing+0x5e6>
7000041c:	9b 83 02 50 	addih %d5,%d3,40
70000420:	5f 52 45 02 	jeq %d2,%d5,700008aa <flashing+0x898>
70000424:	9b 93 02 50 	addih %d5,%d3,41
70000428:	5f 52 32 02 	jeq %d2,%d5,7000088c <flashing+0x87a>
7000042c:	9b a3 02 50 	addih %d5,%d3,42
70000430:	5f 52 1f 02 	jeq %d2,%d5,7000086e <flashing+0x85c>
70000434:	9b c3 02 50 	addih %d5,%d3,44
70000438:	5f 52 0c 02 	jeq %d2,%d5,70000850 <flashing+0x83e>
7000043c:	9b e3 02 50 	addih %d5,%d3,46
70000440:	5f 52 f9 01 	jeq %d2,%d5,70000832 <flashing+0x820>
70000444:	9b 03 03 50 	addih %d5,%d3,48
70000448:	5f 52 e6 01 	jeq %d2,%d5,70000814 <flashing+0x802>
7000044c:	9b 43 03 50 	addih %d5,%d3,52
70000450:	5f 52 d3 01 	jeq %d2,%d5,700007f6 <flashing+0x7e4>
70000454:	9b 83 03 50 	addih %d5,%d3,56
70000458:	5f 52 c0 01 	jeq %d2,%d5,700007d8 <flashing+0x7c6>
7000045c:	9b c3 03 30 	addih %d3,%d3,60
70000460:	5f 32 77 00 	jeq %d2,%d3,7000054e <flashing+0x53c>
70000464:	82 12       	mov %d2,1
70000466:	59 a2 08 00 	st.w [%sp]8,%d2
7000046a:	19 a2 08 00 	ld.w %d2,[%sp]8
7000046e:	df 02 51 00 	jeq %d2,0,70000510 <flashing+0x4fe>
70000472:	91 10 f0 3a 	movh.a %a3,44801
70000476:	d9 33 90 9a 	lea %a3,[%a3]-21936 <af00aa50 <_SMALL_DATA_+0x3f000a50>>
7000047a:	74 34       	st.w [%a3],%d4
7000047c:	0d 00 80 04 	dsync 
70000480:	82 12       	mov %d2,1
70000482:	91 10 f0 3a 	movh.a %a3,44801
70000486:	d9 33 98 9a 	lea %a3,[%a3]-21928 <af00aa58 <_SMALL_DATA_+0x3f000a58>>
7000048a:	74 32       	st.w [%a3],%d2
7000048c:	0d 00 80 04 	dsync 
70000490:	3b 00 08 20 	mov %d2,128
70000494:	91 10 f0 3a 	movh.a %a3,44801
70000498:	d9 33 a8 aa 	lea %a3,[%a3]-21848 <af00aaa8 <_SMALL_DATA_+0x3f000aa8>>
7000049c:	74 32       	st.w [%a3],%d2
7000049e:	0d 00 80 04 	dsync 
700004a2:	3b 00 05 20 	mov %d2,80
700004a6:	74 32       	st.w [%a3],%d2
700004a8:	0d 00 80 04 	dsync 
700004ac:	91 00 80 3f 	movh.a %a3,63488
700004b0:	82 04       	mov %d4,0
700004b2:	7b 40 00 30 	movh %d3,4
700004b6:	d9 33 10 02 	lea %a3,[%a3]8208 <f8002010 <_SMALL_DATA_+0x87ff8010>>
700004ba:	59 a4 0c 00 	st.w [%sp]12 <f8002010 <_SMALL_DATA_+0x87ff8010>>,%d4
700004be:	19 a2 0c 00 	ld.w %d2,[%sp]12 <f8002010 <_SMALL_DATA_+0x87ff8010>>
700004c2:	7f 32 15 80 	jge.u %d2,%d3,700004ec <flashing+0x4da>
700004c6:	19 a2 0c 00 	ld.w %d2,[%sp]12
700004ca:	c2 12       	add %d2,1
700004cc:	59 a2 0c 00 	st.w [%sp]12,%d2
700004d0:	19 a2 0c 00 	ld.w %d2,[%sp]12
700004d4:	c2 f2       	add %d2,-1
700004d6:	59 a2 0c 00 	st.w [%sp]12,%d2
700004da:	19 a2 0c 00 	ld.w %d2,[%sp]12
700004de:	c2 12       	add %d2,1
700004e0:	59 a2 0c 00 	st.w [%sp]12,%d2
700004e4:	19 a2 0c 00 	ld.w %d2,[%sp]12
700004e8:	3f 32 ef ff 	jlt.u %d2,%d3,700004c6 <flashing+0x4b4>
700004ec:	54 32       	ld.w %d2,[%a3]
700004ee:	59 a2 18 00 	st.w [%sp]24,%d2
700004f2:	0d 00 80 04 	dsync 
700004f6:	54 32       	ld.w %d2,[%a3]
700004f8:	8f e2 01 21 	and %d2,%d2,30
700004fc:	df 02 df ff 	jne %d2,0,700004ba <flashing+0x4a8>
70000500:	59 22 10 00 	st.w [%a2]16,%d2
70000504:	00 00       	nop 
70000506:	00 00       	nop 
70000508:	00 00       	nop 
7000050a:	00 a0       	debug 
7000050c:	1d ff d7 ff 	j 700004ba <flashing+0x4a8>
70000510:	3b 00 10 20 	mov %d2,256
70000514:	59 22 10 00 	st.w [%a2]16,%d2
70000518:	00 a0       	debug 
7000051a:	19 24 08 00 	ld.w %d4,[%a2]8
7000051e:	1d ff aa ff 	j 70000472 <flashing+0x460>
70000522:	19 a3 08 00 	ld.w %d3,[%sp]8
70000526:	df 03 92 fe 	jne %d3,0,7000024a <flashing+0x238>
7000052a:	3b 00 00 54 	mov %d5,16384
7000052e:	59 a5 04 00 	st.w [%sp]4,%d5
70000532:	82 15       	mov %d5,1
70000534:	59 a5 08 00 	st.w [%sp]8,%d5
70000538:	59 a3 10 00 	st.w [%sp]16,%d3
7000053c:	1d ff 87 fe 	j 7000024a <flashing+0x238>
70000540:	3b 00 10 20 	mov %d2,256
70000544:	59 22 10 00 	st.w [%a2]16,%d2
70000548:	00 a0       	debug 
7000054a:	1d ff 8a fd 	j 7000005e <flashing+0x4c>
7000054e:	19 a2 08 00 	ld.w %d2,[%sp]8
70000552:	df 02 89 ff 	jne %d2,0,70000464 <flashing+0x452>
70000556:	7b 40 00 30 	movh %d3,4
7000055a:	59 a3 04 00 	st.w [%sp]4,%d3
7000055e:	82 13       	mov %d3,1
70000560:	59 a3 08 00 	st.w [%sp]8,%d3
70000564:	59 a2 10 00 	st.w [%sp]16,%d2
70000568:	1d ff 7e ff 	j 70000464 <flashing+0x452>
7000056c:	3b 00 04 20 	mov %d2,64
70000570:	59 a2 24 00 	st.w [%sp]36,%d2
70000574:	19 a2 24 00 	ld.w %d2,[%sp]36
70000578:	df 02 73 fd 	jne %d2,0,7000005e <flashing+0x4c>
7000057c:	1d ff e2 ff 	j 70000540 <flashing+0x52e>
70000580:	19 a5 08 00 	ld.w %d5,[%sp]8
70000584:	df 05 79 fe 	jne %d5,0,70000276 <flashing+0x264>
70000588:	3b 00 00 64 	mov %d6,16384
7000058c:	59 a6 04 00 	st.w [%sp]4,%d6
70000590:	82 16       	mov %d6,1
70000592:	59 a6 08 00 	st.w [%sp]8,%d6
70000596:	59 a5 10 00 	st.w [%sp]16,%d5
7000059a:	1d ff 6e fe 	j 70000276 <flashing+0x264>
7000059e:	19 a5 08 00 	ld.w %d5,[%sp]8
700005a2:	df 05 66 fe 	jne %d5,0,7000026e <flashing+0x25c>
700005a6:	3b 00 00 64 	mov %d6,16384
700005aa:	59 a6 04 00 	st.w [%sp]4,%d6
700005ae:	82 16       	mov %d6,1
700005b0:	59 a6 08 00 	st.w [%sp]8,%d6
700005b4:	59 a5 10 00 	st.w [%sp]16,%d5
700005b8:	1d ff 5b fe 	j 7000026e <flashing+0x25c>
700005bc:	19 a5 08 00 	ld.w %d5,[%sp]8
700005c0:	df 05 52 fe 	jne %d5,0,70000264 <flashing+0x252>
700005c4:	3b 00 00 64 	mov %d6,16384
700005c8:	59 a6 04 00 	st.w [%sp]4,%d6
700005cc:	82 16       	mov %d6,1
700005ce:	59 a6 08 00 	st.w [%sp]8,%d6
700005d2:	59 a5 10 00 	st.w [%sp]16,%d5
700005d6:	1d ff 47 fe 	j 70000264 <flashing+0x252>
700005da:	19 a5 08 00 	ld.w %d5,[%sp]8
700005de:	df 05 3e fe 	jne %d5,0,7000025a <flashing+0x248>
700005e2:	3b 00 00 64 	mov %d6,16384
700005e6:	59 a6 04 00 	st.w [%sp]4,%d6
700005ea:	82 16       	mov %d6,1
700005ec:	59 a6 08 00 	st.w [%sp]8,%d6
700005f0:	59 a5 10 00 	st.w [%sp]16,%d5
700005f4:	1d ff 33 fe 	j 7000025a <flashing+0x248>
700005f8:	19 a5 08 00 	ld.w %d5,[%sp]8
700005fc:	df 05 10 ff 	jne %d5,0,7000041c <flashing+0x40a>
70000600:	7b 10 00 60 	movh %d6,1
70000604:	59 a6 04 00 	st.w [%sp]4,%d6
70000608:	82 16       	mov %d6,1
7000060a:	59 a6 08 00 	st.w [%sp]8,%d6
7000060e:	59 a5 10 00 	st.w [%sp]16,%d5
70000612:	1d ff 05 ff 	j 7000041c <flashing+0x40a>
70000616:	19 a5 08 00 	ld.w %d5,[%sp]8
7000061a:	df 05 fd fe 	jne %d5,0,70000414 <flashing+0x402>
7000061e:	7b 10 00 60 	movh %d6,1
70000622:	59 a6 04 00 	st.w [%sp]4,%d6
70000626:	82 16       	mov %d6,1
70000628:	59 a6 08 00 	st.w [%sp]8,%d6
7000062c:	59 a5 10 00 	st.w [%sp]16,%d5
70000630:	1d ff f2 fe 	j 70000414 <flashing+0x402>
70000634:	19 a5 08 00 	ld.w %d5,[%sp]8
70000638:	df 05 ea fe 	jne %d5,0,7000040c <flashing+0x3fa>
7000063c:	bb 00 00 68 	mov.u %d6,32768
70000640:	59 a6 04 00 	st.w [%sp]4,%d6
70000644:	82 16       	mov %d6,1
70000646:	59 a6 08 00 	st.w [%sp]8,%d6
7000064a:	59 a5 10 00 	st.w [%sp]16,%d5
7000064e:	1d ff df fe 	j 7000040c <flashing+0x3fa>
70000652:	19 a5 08 00 	ld.w %d5,[%sp]8
70000656:	df 05 d4 fe 	jne %d5,0,700003fe <flashing+0x3ec>
7000065a:	bb 00 00 68 	mov.u %d6,32768
7000065e:	59 a6 04 00 	st.w [%sp]4,%d6
70000662:	82 16       	mov %d6,1
70000664:	59 a6 08 00 	st.w [%sp]8,%d6
70000668:	59 a5 10 00 	st.w [%sp]16,%d5
7000066c:	1d ff c9 fe 	j 700003fe <flashing+0x3ec>
70000670:	19 a5 08 00 	ld.w %d5,[%sp]8
70000674:	df 05 c1 fe 	jne %d5,0,700003f6 <flashing+0x3e4>
70000678:	bb 00 00 68 	mov.u %d6,32768
7000067c:	59 a6 04 00 	st.w [%sp]4,%d6
70000680:	82 16       	mov %d6,1
70000682:	59 a6 08 00 	st.w [%sp]8,%d6
70000686:	59 a5 10 00 	st.w [%sp]16,%d5
7000068a:	1d ff b6 fe 	j 700003f6 <flashing+0x3e4>
7000068e:	19 a5 08 00 	ld.w %d5,[%sp]8
70000692:	df 05 ab fe 	jne %d5,0,700003e8 <flashing+0x3d6>
70000696:	bb 00 00 68 	mov.u %d6,32768
7000069a:	59 a6 04 00 	st.w [%sp]4,%d6
7000069e:	82 16       	mov %d6,1
700006a0:	59 a6 08 00 	st.w [%sp]8,%d6
700006a4:	59 a5 10 00 	st.w [%sp]16,%d5
700006a8:	1d ff a0 fe 	j 700003e8 <flashing+0x3d6>
700006ac:	19 a5 08 00 	ld.w %d5,[%sp]8
700006b0:	df 05 98 fe 	jne %d5,0,700003e0 <flashing+0x3ce>
700006b4:	bb 00 00 68 	mov.u %d6,32768
700006b8:	59 a6 04 00 	st.w [%sp]4,%d6
700006bc:	82 16       	mov %d6,1
700006be:	59 a6 08 00 	st.w [%sp]8,%d6
700006c2:	59 a5 10 00 	st.w [%sp]16,%d5
700006c6:	1d ff 8d fe 	j 700003e0 <flashing+0x3ce>
700006ca:	19 a5 08 00 	ld.w %d5,[%sp]8
700006ce:	df 05 82 fe 	jne %d5,0,700003d2 <flashing+0x3c0>
700006d2:	bb 00 00 68 	mov.u %d6,32768
700006d6:	59 a6 04 00 	st.w [%sp]4,%d6
700006da:	82 16       	mov %d6,1
700006dc:	59 a6 08 00 	st.w [%sp]8,%d6
700006e0:	59 a5 10 00 	st.w [%sp]16,%d5
700006e4:	1d ff 77 fe 	j 700003d2 <flashing+0x3c0>
700006e8:	19 a5 08 00 	ld.w %d5,[%sp]8
700006ec:	df 05 6f fe 	jne %d5,0,700003ca <flashing+0x3b8>
700006f0:	bb 00 00 68 	mov.u %d6,32768
700006f4:	59 a6 04 00 	st.w [%sp]4,%d6
700006f8:	82 16       	mov %d6,1
700006fa:	59 a6 08 00 	st.w [%sp]8,%d6
700006fe:	59 a5 10 00 	st.w [%sp]16,%d5
70000702:	1d ff 64 fe 	j 700003ca <flashing+0x3b8>
70000706:	19 a5 08 00 	ld.w %d5,[%sp]8
7000070a:	df 05 59 fe 	jne %d5,0,700003bc <flashing+0x3aa>
7000070e:	bb 00 00 68 	mov.u %d6,32768
70000712:	59 a6 04 00 	st.w [%sp]4,%d6
70000716:	82 16       	mov %d6,1
70000718:	59 a6 08 00 	st.w [%sp]8,%d6
7000071c:	59 a5 10 00 	st.w [%sp]16,%d5
70000720:	1d ff 4e fe 	j 700003bc <flashing+0x3aa>
70000724:	19 a5 08 00 	ld.w %d5,[%sp]8
70000728:	df 05 46 fe 	jne %d5,0,700003b4 <flashing+0x3a2>
7000072c:	3b 00 00 64 	mov %d6,16384
70000730:	59 a6 04 00 	st.w [%sp]4,%d6
70000734:	82 16       	mov %d6,1
70000736:	59 a6 08 00 	st.w [%sp]8,%d6
7000073a:	59 a5 10 00 	st.w [%sp]16,%d5
7000073e:	1d ff 3b fe 	j 700003b4 <flashing+0x3a2>
70000742:	19 a5 08 00 	ld.w %d5,[%sp]8
70000746:	df 05 30 fe 	jne %d5,0,700003a6 <flashing+0x394>
7000074a:	3b 00 00 64 	mov %d6,16384
7000074e:	59 a6 04 00 	st.w [%sp]4,%d6
70000752:	82 16       	mov %d6,1
70000754:	59 a6 08 00 	st.w [%sp]8,%d6
70000758:	59 a5 10 00 	st.w [%sp]16,%d5
7000075c:	1d ff 25 fe 	j 700003a6 <flashing+0x394>
70000760:	19 a5 08 00 	ld.w %d5,[%sp]8
70000764:	df 05 1a fe 	jne %d5,0,70000398 <flashing+0x386>
70000768:	3b 00 00 64 	mov %d6,16384
7000076c:	59 a6 04 00 	st.w [%sp]4,%d6
70000770:	82 16       	mov %d6,1
70000772:	59 a6 08 00 	st.w [%sp]8,%d6
70000776:	59 a5 10 00 	st.w [%sp]16,%d5
7000077a:	1d ff 0f fe 	j 70000398 <flashing+0x386>
7000077e:	19 a5 08 00 	ld.w %d5,[%sp]8
70000782:	df 05 04 fe 	jne %d5,0,7000038a <flashing+0x378>
70000786:	3b 00 00 64 	mov %d6,16384
7000078a:	59 a6 04 00 	st.w [%sp]4,%d6
7000078e:	82 16       	mov %d6,1
70000790:	59 a6 08 00 	st.w [%sp]8,%d6
70000794:	59 a5 10 00 	st.w [%sp]16,%d5
70000798:	1d ff f9 fd 	j 7000038a <flashing+0x378>
7000079c:	19 a5 08 00 	ld.w %d5,[%sp]8
700007a0:	df 05 f1 fd 	jne %d5,0,70000382 <flashing+0x370>
700007a4:	3b 00 00 64 	mov %d6,16384
700007a8:	59 a6 04 00 	st.w [%sp]4,%d6
700007ac:	82 16       	mov %d6,1
700007ae:	59 a6 08 00 	st.w [%sp]8,%d6
700007b2:	59 a5 10 00 	st.w [%sp]16,%d5
700007b6:	1d ff e6 fd 	j 70000382 <flashing+0x370>
700007ba:	19 a5 08 00 	ld.w %d5,[%sp]8
700007be:	df 05 db fd 	jne %d5,0,70000374 <flashing+0x362>
700007c2:	3b 00 00 64 	mov %d6,16384
700007c6:	59 a6 04 00 	st.w [%sp]4,%d6
700007ca:	82 16       	mov %d6,1
700007cc:	59 a6 08 00 	st.w [%sp]8,%d6
700007d0:	59 a5 10 00 	st.w [%sp]16,%d5
700007d4:	1d ff d0 fd 	j 70000374 <flashing+0x362>
700007d8:	19 a5 08 00 	ld.w %d5,[%sp]8
700007dc:	df 05 40 fe 	jne %d5,0,7000045c <flashing+0x44a>
700007e0:	7b 40 00 60 	movh %d6,4
700007e4:	59 a6 04 00 	st.w [%sp]4,%d6
700007e8:	82 16       	mov %d6,1
700007ea:	59 a6 08 00 	st.w [%sp]8,%d6
700007ee:	59 a5 10 00 	st.w [%sp]16,%d5
700007f2:	1d ff 35 fe 	j 7000045c <flashing+0x44a>
700007f6:	19 a5 08 00 	ld.w %d5,[%sp]8
700007fa:	df 05 2d fe 	jne %d5,0,70000454 <flashing+0x442>
700007fe:	7b 40 00 60 	movh %d6,4
70000802:	59 a6 04 00 	st.w [%sp]4,%d6
70000806:	82 16       	mov %d6,1
70000808:	59 a6 08 00 	st.w [%sp]8,%d6
7000080c:	59 a5 10 00 	st.w [%sp]16,%d5
70000810:	1d ff 22 fe 	j 70000454 <flashing+0x442>
70000814:	19 a5 08 00 	ld.w %d5,[%sp]8
70000818:	df 05 1a fe 	jne %d5,0,7000044c <flashing+0x43a>
7000081c:	7b 40 00 60 	movh %d6,4
70000820:	59 a6 04 00 	st.w [%sp]4,%d6
70000824:	82 16       	mov %d6,1
70000826:	59 a6 08 00 	st.w [%sp]8,%d6
7000082a:	59 a5 10 00 	st.w [%sp]16,%d5
7000082e:	1d ff 0f fe 	j 7000044c <flashing+0x43a>
70000832:	19 a5 08 00 	ld.w %d5,[%sp]8
70000836:	df 05 07 fe 	jne %d5,0,70000444 <flashing+0x432>
7000083a:	7b 20 00 60 	movh %d6,2
7000083e:	59 a6 04 00 	st.w [%sp]4,%d6
70000842:	82 16       	mov %d6,1
70000844:	59 a6 08 00 	st.w [%sp]8,%d6
70000848:	59 a5 10 00 	st.w [%sp]16,%d5
7000084c:	1d ff fc fd 	j 70000444 <flashing+0x432>
70000850:	19 a5 08 00 	ld.w %d5,[%sp]8
70000854:	df 05 f4 fd 	jne %d5,0,7000043c <flashing+0x42a>
70000858:	7b 20 00 60 	movh %d6,2
7000085c:	59 a6 04 00 	st.w [%sp]4,%d6
70000860:	82 16       	mov %d6,1
70000862:	59 a6 08 00 	st.w [%sp]8,%d6
70000866:	59 a5 10 00 	st.w [%sp]16,%d5
7000086a:	1d ff e9 fd 	j 7000043c <flashing+0x42a>
7000086e:	19 a5 08 00 	ld.w %d5,[%sp]8
70000872:	df 05 e1 fd 	jne %d5,0,70000434 <flashing+0x422>
70000876:	7b 20 00 60 	movh %d6,2
7000087a:	59 a6 04 00 	st.w [%sp]4,%d6
7000087e:	82 16       	mov %d6,1
70000880:	59 a6 08 00 	st.w [%sp]8,%d6
70000884:	59 a5 10 00 	st.w [%sp]16,%d5
70000888:	1d ff d6 fd 	j 70000434 <flashing+0x422>
7000088c:	19 a5 08 00 	ld.w %d5,[%sp]8
70000890:	df 05 ce fd 	jne %d5,0,7000042c <flashing+0x41a>
70000894:	7b 10 00 60 	movh %d6,1
70000898:	59 a6 04 00 	st.w [%sp]4,%d6
7000089c:	82 16       	mov %d6,1
7000089e:	59 a6 08 00 	st.w [%sp]8,%d6
700008a2:	59 a5 10 00 	st.w [%sp]16,%d5
700008a6:	1d ff c3 fd 	j 7000042c <flashing+0x41a>
700008aa:	19 a5 08 00 	ld.w %d5,[%sp]8
700008ae:	df 05 bb fd 	jne %d5,0,70000424 <flashing+0x412>
700008b2:	7b 10 00 60 	movh %d6,1
700008b6:	59 a6 04 00 	st.w [%sp]4,%d6
700008ba:	82 16       	mov %d6,1
700008bc:	59 a6 08 00 	st.w [%sp]8,%d6
700008c0:	59 a5 10 00 	st.w [%sp]16,%d5
700008c4:	1d ff b0 fd 	j 70000424 <flashing+0x412>
700008c8:	19 a5 08 00 	ld.w %d5,[%sp]8
700008cc:	df 05 04 fd 	jne %d5,0,700002d4 <flashing+0x2c2>
700008d0:	bb 00 00 68 	mov.u %d6,32768
700008d4:	59 a6 04 00 	st.w [%sp]4,%d6
700008d8:	82 16       	mov %d6,1
700008da:	59 a6 08 00 	st.w [%sp]8,%d6
700008de:	59 a5 10 00 	st.w [%sp]16,%d5
700008e2:	1d ff f9 fc 	j 700002d4 <flashing+0x2c2>
700008e6:	19 a5 08 00 	ld.w %d5,[%sp]8
700008ea:	df 05 f1 fc 	jne %d5,0,700002cc <flashing+0x2ba>
700008ee:	bb 00 00 68 	mov.u %d6,32768
700008f2:	59 a6 04 00 	st.w [%sp]4,%d6
700008f6:	82 16       	mov %d6,1
700008f8:	59 a6 08 00 	st.w [%sp]8,%d6
700008fc:	59 a5 10 00 	st.w [%sp]16,%d5
70000900:	1d ff e6 fc 	j 700002cc <flashing+0x2ba>
70000904:	19 a5 08 00 	ld.w %d5,[%sp]8
70000908:	df 05 db fc 	jne %d5,0,700002be <flashing+0x2ac>
7000090c:	bb 00 00 68 	mov.u %d6,32768
70000910:	59 a6 04 00 	st.w [%sp]4,%d6
70000914:	82 16       	mov %d6,1
70000916:	59 a6 08 00 	st.w [%sp]8,%d6
7000091a:	59 a5 10 00 	st.w [%sp]16,%d5
7000091e:	1d ff d0 fc 	j 700002be <flashing+0x2ac>
70000922:	19 a5 08 00 	ld.w %d5,[%sp]8
70000926:	df 05 c8 fc 	jne %d5,0,700002b6 <flashing+0x2a4>
7000092a:	bb 00 00 68 	mov.u %d6,32768
7000092e:	59 a6 04 00 	st.w [%sp]4,%d6
70000932:	82 16       	mov %d6,1
70000934:	59 a6 08 00 	st.w [%sp]8,%d6
70000938:	59 a5 10 00 	st.w [%sp]16,%d5
7000093c:	1d ff bd fc 	j 700002b6 <flashing+0x2a4>
70000940:	19 a5 08 00 	ld.w %d5,[%sp]8
70000944:	df 05 b2 fc 	jne %d5,0,700002a8 <flashing+0x296>
70000948:	bb 00 00 68 	mov.u %d6,32768
7000094c:	59 a6 04 00 	st.w [%sp]4,%d6
70000950:	82 16       	mov %d6,1
70000952:	59 a6 08 00 	st.w [%sp]8,%d6
70000956:	59 a5 10 00 	st.w [%sp]16,%d5
7000095a:	1d ff a7 fc 	j 700002a8 <flashing+0x296>
7000095e:	19 a5 08 00 	ld.w %d5,[%sp]8
70000962:	df 05 9f fc 	jne %d5,0,700002a0 <flashing+0x28e>
70000966:	3b 00 00 64 	mov %d6,16384
7000096a:	59 a6 04 00 	st.w [%sp]4,%d6
7000096e:	82 16       	mov %d6,1
70000970:	59 a6 08 00 	st.w [%sp]8,%d6
70000974:	59 a5 10 00 	st.w [%sp]16,%d5
70000978:	1d ff 94 fc 	j 700002a0 <flashing+0x28e>
7000097c:	19 a5 08 00 	ld.w %d5,[%sp]8
70000980:	df 05 89 fc 	jne %d5,0,70000292 <flashing+0x280>
70000984:	3b 00 00 64 	mov %d6,16384
70000988:	59 a6 04 00 	st.w [%sp]4,%d6
7000098c:	82 16       	mov %d6,1
7000098e:	59 a6 08 00 	st.w [%sp]8,%d6
70000992:	59 a5 10 00 	st.w [%sp]16,%d5
70000996:	1d ff 7e fc 	j 70000292 <flashing+0x280>
7000099a:	19 a5 08 00 	ld.w %d5,[%sp]8
7000099e:	df 05 73 fc 	jne %d5,0,70000284 <flashing+0x272>
700009a2:	3b 00 00 64 	mov %d6,16384
700009a6:	59 a6 04 00 	st.w [%sp]4,%d6
700009aa:	82 16       	mov %d6,1
700009ac:	59 a6 08 00 	st.w [%sp]8,%d6
700009b0:	59 a5 10 00 	st.w [%sp]16,%d5
700009b4:	1d ff 68 fc 	j 70000284 <flashing+0x272>
700009b8:	19 a5 08 00 	ld.w %d5,[%sp]8
700009bc:	df 05 d5 fc 	jne %d5,0,70000366 <flashing+0x354>
700009c0:	3b 00 00 64 	mov %d6,16384
700009c4:	59 a6 04 00 	st.w [%sp]4,%d6
700009c8:	82 16       	mov %d6,1
700009ca:	59 a6 08 00 	st.w [%sp]8,%d6
700009ce:	59 a5 10 00 	st.w [%sp]16,%d5
700009d2:	1d ff ca fc 	j 70000366 <flashing+0x354>
700009d6:	19 a5 08 00 	ld.w %d5,[%sp]8
700009da:	df 05 bf fc 	jne %d5,0,70000358 <flashing+0x346>
700009de:	3b 00 00 64 	mov %d6,16384
700009e2:	59 a6 04 00 	st.w [%sp]4,%d6
700009e6:	82 16       	mov %d6,1
700009e8:	59 a6 08 00 	st.w [%sp]8,%d6
700009ec:	59 a5 10 00 	st.w [%sp]16,%d5
700009f0:	1d ff b4 fc 	j 70000358 <flashing+0x346>
700009f4:	19 a5 08 00 	ld.w %d5,[%sp]8
700009f8:	df 05 ac fc 	jne %d5,0,70000350 <flashing+0x33e>
700009fc:	7b 40 00 60 	movh %d6,4
70000a00:	59 a6 04 00 	st.w [%sp]4,%d6
70000a04:	82 16       	mov %d6,1
70000a06:	59 a6 08 00 	st.w [%sp]8,%d6
70000a0a:	59 a5 10 00 	st.w [%sp]16,%d5
70000a0e:	1d ff a1 fc 	j 70000350 <flashing+0x33e>
70000a12:	19 a5 08 00 	ld.w %d5,[%sp]8
70000a16:	df 05 99 fc 	jne %d5,0,70000348 <flashing+0x336>
70000a1a:	7b 40 00 60 	movh %d6,4
70000a1e:	59 a6 04 00 	st.w [%sp]4,%d6
70000a22:	82 16       	mov %d6,1
70000a24:	59 a6 08 00 	st.w [%sp]8,%d6
70000a28:	59 a5 10 00 	st.w [%sp]16,%d5
70000a2c:	1d ff 8e fc 	j 70000348 <flashing+0x336>
70000a30:	19 a5 08 00 	ld.w %d5,[%sp]8
70000a34:	df 05 86 fc 	jne %d5,0,70000340 <flashing+0x32e>
70000a38:	7b 40 00 60 	movh %d6,4
70000a3c:	59 a6 04 00 	st.w [%sp]4,%d6
70000a40:	82 16       	mov %d6,1
70000a42:	59 a6 08 00 	st.w [%sp]8,%d6
70000a46:	59 a5 10 00 	st.w [%sp]16,%d5
70000a4a:	1d ff 7b fc 	j 70000340 <flashing+0x32e>
70000a4e:	19 a5 08 00 	ld.w %d5,[%sp]8
70000a52:	df 05 73 fc 	jne %d5,0,70000338 <flashing+0x326>
70000a56:	7b 40 00 60 	movh %d6,4
70000a5a:	59 a6 04 00 	st.w [%sp]4,%d6
70000a5e:	82 16       	mov %d6,1
70000a60:	59 a6 08 00 	st.w [%sp]8,%d6
70000a64:	59 a5 10 00 	st.w [%sp]16,%d5
70000a68:	1d ff 68 fc 	j 70000338 <flashing+0x326>
70000a6c:	19 a5 08 00 	ld.w %d5,[%sp]8
70000a70:	df 05 60 fc 	jne %d5,0,70000330 <flashing+0x31e>
70000a74:	7b 20 00 60 	movh %d6,2
70000a78:	59 a6 04 00 	st.w [%sp]4,%d6
70000a7c:	82 16       	mov %d6,1
70000a7e:	59 a6 08 00 	st.w [%sp]8,%d6
70000a82:	59 a5 10 00 	st.w [%sp]16,%d5
70000a86:	1d ff 55 fc 	j 70000330 <flashing+0x31e>
70000a8a:	19 a5 08 00 	ld.w %d5,[%sp]8
70000a8e:	df 05 4d fc 	jne %d5,0,70000328 <flashing+0x316>
70000a92:	7b 20 00 60 	movh %d6,2
70000a96:	59 a6 04 00 	st.w [%sp]4,%d6
70000a9a:	82 16       	mov %d6,1
70000a9c:	59 a6 08 00 	st.w [%sp]8,%d6
70000aa0:	59 a5 10 00 	st.w [%sp]16,%d5
70000aa4:	1d ff 42 fc 	j 70000328 <flashing+0x316>
70000aa8:	19 a5 08 00 	ld.w %d5,[%sp]8
70000aac:	df 05 3a fc 	jne %d5,0,70000320 <flashing+0x30e>
70000ab0:	7b 20 00 60 	movh %d6,2
70000ab4:	59 a6 04 00 	st.w [%sp]4,%d6
70000ab8:	82 16       	mov %d6,1
70000aba:	59 a6 08 00 	st.w [%sp]8,%d6
70000abe:	59 a5 10 00 	st.w [%sp]16,%d5
70000ac2:	1d ff 2f fc 	j 70000320 <flashing+0x30e>
70000ac6:	19 a5 08 00 	ld.w %d5,[%sp]8
70000aca:	df 05 27 fc 	jne %d5,0,70000318 <flashing+0x306>
70000ace:	7b 10 00 60 	movh %d6,1
70000ad2:	59 a6 04 00 	st.w [%sp]4,%d6
70000ad6:	82 16       	mov %d6,1
70000ad8:	59 a6 08 00 	st.w [%sp]8,%d6
70000adc:	59 a5 10 00 	st.w [%sp]16,%d5
70000ae0:	1d ff 1c fc 	j 70000318 <flashing+0x306>
70000ae4:	19 a5 08 00 	ld.w %d5,[%sp]8
70000ae8:	df 05 14 fc 	jne %d5,0,70000310 <flashing+0x2fe>
70000aec:	7b 10 00 60 	movh %d6,1
70000af0:	59 a6 04 00 	st.w [%sp]4,%d6
70000af4:	82 16       	mov %d6,1
70000af6:	59 a6 08 00 	st.w [%sp]8,%d6
70000afa:	59 a5 10 00 	st.w [%sp]16,%d5
70000afe:	1d ff 09 fc 	j 70000310 <flashing+0x2fe>
70000b02:	19 a5 08 00 	ld.w %d5,[%sp]8
70000b06:	df 05 01 fc 	jne %d5,0,70000308 <flashing+0x2f6>
70000b0a:	7b 10 00 60 	movh %d6,1
70000b0e:	59 a6 04 00 	st.w [%sp]4,%d6
70000b12:	82 16       	mov %d6,1
70000b14:	59 a6 08 00 	st.w [%sp]8,%d6
70000b18:	59 a5 10 00 	st.w [%sp]16,%d5
70000b1c:	1d ff f6 fb 	j 70000308 <flashing+0x2f6>
70000b20:	19 a5 08 00 	ld.w %d5,[%sp]8
70000b24:	df 05 ee fb 	jne %d5,0,70000300 <flashing+0x2ee>
70000b28:	7b 10 00 60 	movh %d6,1
70000b2c:	59 a6 04 00 	st.w [%sp]4,%d6
70000b30:	82 16       	mov %d6,1
70000b32:	59 a6 08 00 	st.w [%sp]8,%d6
70000b36:	59 a5 10 00 	st.w [%sp]16,%d5
70000b3a:	1d ff e3 fb 	j 70000300 <flashing+0x2ee>
70000b3e:	19 a5 08 00 	ld.w %d5,[%sp]8
70000b42:	df 05 db fb 	jne %d5,0,700002f8 <flashing+0x2e6>
70000b46:	bb 00 00 68 	mov.u %d6,32768
70000b4a:	59 a6 04 00 	st.w [%sp]4,%d6
70000b4e:	82 16       	mov %d6,1
70000b50:	59 a6 08 00 	st.w [%sp]8,%d6
70000b54:	59 a5 10 00 	st.w [%sp]16,%d5
70000b58:	1d ff d0 fb 	j 700002f8 <flashing+0x2e6>
70000b5c:	19 a5 08 00 	ld.w %d5,[%sp]8
70000b60:	df 05 c5 fb 	jne %d5,0,700002ea <flashing+0x2d8>
70000b64:	bb 00 00 68 	mov.u %d6,32768
70000b68:	59 a6 04 00 	st.w [%sp]4,%d6
70000b6c:	82 16       	mov %d6,1
70000b6e:	59 a6 08 00 	st.w [%sp]8,%d6
70000b72:	59 a5 10 00 	st.w [%sp]16,%d5
70000b76:	1d ff ba fb 	j 700002ea <flashing+0x2d8>
70000b7a:	19 a5 08 00 	ld.w %d5,[%sp]8
70000b7e:	df 05 b2 fb 	jne %d5,0,700002e2 <flashing+0x2d0>
70000b82:	bb 00 00 68 	mov.u %d6,32768
70000b86:	59 a6 04 00 	st.w [%sp]4,%d6
70000b8a:	82 16       	mov %d6,1
70000b8c:	59 a6 08 00 	st.w [%sp]8,%d6
70000b90:	59 a5 10 00 	st.w [%sp]16,%d5
70000b94:	1d ff a7 fb 	j 700002e2 <flashing+0x2d0>
